; Function Attrs: nounwind uwtable
define dso_local i32 @PyCFunction_GetFlags(ptr noundef readonly captures(none) %0) local_unnamed_addr #0 {
  %2 = getelementptr i8, ptr %0, i64 8
  %.val = load ptr, ptr %2, align 8, !tbaa !113
  %.not.i = icmp eq ptr %.val, @PyCFunction_Type
  br i1 %.not.i, label %PyObject_TypeCheck.exit.thread, label %PyObject_TypeCheck.exit

PyObject_TypeCheck.exit:                          ; preds = %1
  %3 = tail call i32 @PyType_IsSubtype(ptr noundef %.val, ptr noundef nonnull @PyCFunction_Type) #5
  %.not4 = icmp eq i32 %3, 0
  br i1 %.not4, label %4, label %PyObject_TypeCheck.exit.thread

4:                                                ; preds = %PyObject_TypeCheck.exit
  tail call void @_PyErr_BadInternalCall(ptr noundef nonnull @.str.3, i32 noundef 140) #5
  br label %7

PyObject_TypeCheck.exit.thread:                   ; preds = %1, %PyObject_TypeCheck.exit
  %5 = getelementptr i8, ptr %0, i64 16
  %.val2 = load ptr, ptr %5, align 8, !tbaa !22
  %6 = getelementptr i8, ptr %.val2, i64 16
  %.val2.val = load i32, ptr %6, align 8, !tbaa !4
  br label %7

7:                                                ; preds = %PyObject_TypeCheck.exit.thread, %4
  %.0 = phi i32 [ %.val2.val, %PyObject_TypeCheck.exit.thread ], [ -1, %4 ]
  ret i32 %.0
}